target datalayout = "e-m:e-p270:32:32-p271:32:32-p272:64:64-i64:64-i128:128-f80:128-n8:16:32:64-S128"
target triple = "x86_64-pc-linux-gnu"

%struct.quic_srtm_st = type { ptr, ptr, ptr, i8 }

@.str = private unnamed_addr constant [32 x i8] c"../openssl/ssl/quic/quic_srtm.c\00", align 1
@.str.1 = private unnamed_addr constant [12 x i8] c"AES-128-ECB\00", align 1

; Function Attrs: inlinehint nounwind uwtable
define internal void @lh_SRTM_ITEM_doall(ptr noundef %0, ptr noundef %1) #3 {
  %3 = alloca ptr, align 8
  %4 = alloca ptr, align 8
  store ptr %0, ptr %3, align 8, !tbaa !29
  store ptr %1, ptr %4, align 8, !tbaa !21
  %5 = load ptr, ptr %3, align 8, !tbaa !29
  %6 = load ptr, ptr %4, align 8, !tbaa !21
  call void @OPENSSL_LH_doall(ptr noundef %5, ptr noundef %6)
  ret void
}

; Function Attrs: inlinehint nounwind uwtable
define internal void @lh_SRTM_ITEM_free(ptr noundef %0) #3 {
  %2 = alloca ptr, align 8
  store ptr %0, ptr %2, align 8, !tbaa !29
  %3 = load ptr, ptr %2, align 8, !tbaa !29
  call void @OPENSSL_LH_free(ptr noundef %3)
  ret void
}

; Function Attrs: nounwind uwtable
define void @ossl_quic_srtm_free(ptr noundef %0) #0 {
  %2 = alloca ptr, align 8
  store ptr %0, ptr %2, align 8, !tbaa !10
  %3 = load ptr, ptr %2, align 8, !tbaa !10
  %4 = icmp eq ptr %3, null
  br i1 %4, label %5, label %6

5:                                                ; preds = %1
  br label %26

6:                                                ; preds = %1
  %7 = load ptr, ptr %2, align 8, !tbaa !10
  %8 = getelementptr inbounds nuw %struct.quic_srtm_st, ptr %7, i32 0, i32 2
  %9 = load ptr, ptr %8, align 8, !tbaa !20
  call void @lh_SRTM_ITEM_free(ptr noundef %9)
  %10 = load ptr, ptr %2, align 8, !tbaa !10
  %11 = getelementptr inbounds nuw %struct.quic_srtm_st, ptr %10, i32 0, i32 1
  %12 = load ptr, ptr %11, align 8, !tbaa !19
  %13 = icmp ne ptr %12, null
  br i1 %13, label %14, label %21

14:                                               ; preds = %6
  %15 = load ptr, ptr %2, align 8, !tbaa !10
  %16 = getelementptr inbounds nuw %struct.quic_srtm_st, ptr %15, i32 0, i32 1
  %17 = load ptr, ptr %16, align 8, !tbaa !19
  call void @lh_SRTM_ITEM_doall(ptr noundef %17, ptr noundef @srtm_free_each)
  %18 = load ptr, ptr %2, align 8, !tbaa !10
  %19 = getelementptr inbounds nuw %struct.quic_srtm_st, ptr %18, i32 0, i32 1
  %20 = load ptr, ptr %19, align 8, !tbaa !19
  call void @lh_SRTM_ITEM_free(ptr noundef %20)
  br label %21

21:                                               ; preds = %14, %6
  %22 = load ptr, ptr %2, align 8, !tbaa !10
  %23 = getelementptr inbounds nuw %struct.quic_srtm_st, ptr %22, i32 0, i32 0
  %24 = load ptr, ptr %23, align 8, !tbaa !14
  call void @EVP_CIPHER_CTX_free(ptr noundef %24)
  %25 = load ptr, ptr %2, align 8, !tbaa !10
  call void @CRYPTO_free(ptr noundef %25, ptr noundef @.str, i32 noundef 176)
  br label %26

26:                                               ; preds = %21, %5
  ret void
}

; Function Attrs: inlinehint nounwind uwtable
define internal ptr @lh_SRTM_ITEM_new(ptr noundef %0, ptr noundef %1) #3 {
  %3 = alloca ptr, align 8
  %4 = alloca ptr, align 8
  store ptr %0, ptr %3, align 8, !tbaa !21
  store ptr %1, ptr %4, align 8, !tbaa !21
  %5 = load ptr, ptr %3, align 8, !tbaa !21
  %6 = load ptr, ptr %4, align 8, !tbaa !21
  %7 = call ptr @OPENSSL_LH_new(ptr noundef %5, ptr noundef %6)
  %8 = call ptr @OPENSSL_LH_set_thunks(ptr noundef %7, ptr noundef @lh_SRTM_ITEM_hfn_thunk, ptr noundef @lh_SRTM_ITEM_cfn_thunk, ptr noundef @lh_SRTM_ITEM_doall_thunk, ptr noundef @lh_SRTM_ITEM_doall_arg_thunk)
  ret ptr %8
}

; Function Attrs: nounwind uwtable
define ptr @ossl_quic_srtm_new(ptr noundef %0, ptr noundef %1) #0 {
  %3 = alloca ptr, align 8
  %4 = alloca ptr, align 8
  %5 = alloca ptr, align 8
  %6 = alloca ptr, align 8
  %7 = alloca [16 x i8], align 16
  %8 = alloca ptr, align 8
  %9 = alloca i32, align 4
  store ptr %0, ptr %4, align 8, !tbaa !3
  store ptr %1, ptr %5, align 8, !tbaa !8
  call void @llvm.lifetime.start.p0(i64 8, ptr %6) #7
  store ptr null, ptr %6, align 8, !tbaa !10
  call void @llvm.lifetime.start.p0(i64 16, ptr %7) #7
  call void @llvm.lifetime.start.p0(i64 8, ptr %8) #7
  store ptr null, ptr %8, align 8, !tbaa !12
  %10 = load ptr, ptr %4, align 8, !tbaa !3
  %11 = getelementptr inbounds [16 x i8], ptr %7, i64 0, i64 0
  %12 = call i32 @RAND_priv_bytes_ex(ptr noundef %10, ptr noundef %11, i64 noundef 16, i32 noundef 128)
  %13 = icmp ne i32 %12, 1
  br i1 %13, label %14, label %15

14:                                               ; preds = %2
  br label %54

15:                                               ; preds = %2
  %16 = call noalias ptr @CRYPTO_zalloc(i64 noundef 32, ptr noundef @.str, i32 noundef 119)
  store ptr %16, ptr %6, align 8, !tbaa !10
  %17 = icmp eq ptr %16, null
  br i1 %17, label %18, label %19

18:                                               ; preds = %15
  store ptr null, ptr %3, align 8
  store i32 1, ptr %9, align 4
  br label %57

19:                                               ; preds = %15
  %20 = load ptr, ptr %4, align 8, !tbaa !3
  %21 = load ptr, ptr %5, align 8, !tbaa !8
  %22 = call ptr @EVP_CIPHER_fetch(ptr noundef %20, ptr noundef @.str.1, ptr noundef %21)
  store ptr %22, ptr %8, align 8, !tbaa !12
  %23 = icmp eq ptr %22, null
  br i1 %23, label %24, label %25

24:                                               ; preds = %19
  br label %54

25:                                               ; preds = %19
  %26 = call ptr @EVP_CIPHER_CTX_new()
  %27 = load ptr, ptr %6, align 8, !tbaa !10
  %28 = getelementptr inbounds nuw %struct.quic_srtm_st, ptr %27, i32 0, i32 0
  store ptr %26, ptr %28, align 8, !tbaa !14
  %29 = icmp eq ptr %26, null
  br i1 %29, label %30, label %31

30:                                               ; preds = %25
  br label %54

31:                                               ; preds = %25
  %32 = load ptr, ptr %6, align 8, !tbaa !10
  %33 = getelementptr inbounds nuw %struct.quic_srtm_st, ptr %32, i32 0, i32 0
  %34 = load ptr, ptr %33, align 8, !tbaa !14
  %35 = load ptr, ptr %8, align 8, !tbaa !12
  %36 = getelementptr inbounds [16 x i8], ptr %7, i64 0, i64 0
  %37 = call i32 @EVP_EncryptInit_ex2(ptr noundef %34, ptr noundef %35, ptr noundef %36, ptr noundef null, ptr noundef null)
  %38 = icmp ne i32 %37, 0
  br i1 %38, label %40, label %39

39:                                               ; preds = %31
  br label %54

40:                                               ; preds = %31
  %41 = load ptr, ptr %8, align 8, !tbaa !12
  call void @EVP_CIPHER_free(ptr noundef %41)
  store ptr null, ptr %8, align 8, !tbaa !12
  %42 = call ptr @lh_SRTM_ITEM_new(ptr noundef @items_fwd_hash, ptr noundef @items_fwd_cmp)
  %43 = load ptr, ptr %6, align 8, !tbaa !10
  %44 = getelementptr inbounds nuw %struct.quic_srtm_st, ptr %43, i32 0, i32 1
  store ptr %42, ptr %44, align 8, !tbaa !19
  %45 = icmp eq ptr %42, null
  br i1 %45, label %51, label %46

46:                                               ; preds = %40
  %47 = call ptr @lh_SRTM_ITEM_new(ptr noundef @items_rev_hash, ptr noundef @items_rev_cmp)
  %48 = load ptr, ptr %6, align 8, !tbaa !10
  %49 = getelementptr inbounds nuw %struct.quic_srtm_st, ptr %48, i32 0, i32 2
  store ptr %47, ptr %49, align 8, !tbaa !20
  %50 = icmp eq ptr %47, null
  br i1 %50, label %51, label %52

51:                                               ; preds = %46, %40
  br label %54

52:                                               ; preds = %46
  %53 = load ptr, ptr %6, align 8, !tbaa !10
  store ptr %53, ptr %3, align 8
  store i32 1, ptr %9, align 4
  br label %57

54:                                               ; preds = %51, %39, %30, %24, %14
  %55 = load ptr, ptr %6, align 8, !tbaa !10
  call void @ossl_quic_srtm_free(ptr noundef %55)
  %56 = load ptr, ptr %8, align 8, !tbaa !12
  call void @EVP_CIPHER_free(ptr noundef %56)
  store ptr null, ptr %3, align 8
  store i32 1, ptr %9, align 4
  br label %57

57:                                               ; preds = %54, %52, %18
  call void @llvm.lifetime.end.p0(i64 8, ptr %8) #7
  call void @llvm.lifetime.end.p0(i64 16, ptr %7) #7
  call void @llvm.lifetime.end.p0(i64 8, ptr %6) #7
  %58 = load ptr, ptr %3, align 8
  ret ptr %58
}