; Function Attrs: nounwind uwtable
define ptr @ossl_quic_srtm_new(ptr noundef %0, ptr noundef %1) local_unnamed_addr #0 {
  %3 = alloca [16 x i8], align 16
  call void @llvm.lifetime.start.p0(i64 16, ptr nonnull %3) #9
  %4 = call i32 @RAND_priv_bytes_ex(ptr noundef %0, ptr noundef nonnull %3, i64 noundef 16, i32 noundef 128) #9
  %.not = icmp eq i32 %4, 1
  br i1 %.not, label %5, label %ossl_quic_srtm_free.exit

5:                                                ; preds = %2
  %6 = call noalias ptr @CRYPTO_zalloc(i64 noundef 32, ptr noundef nonnull @.str, i32 noundef 119) #9
  %7 = icmp eq ptr %6, null
  br i1 %7, label %34, label %8

8:                                                ; preds = %5
  %9 = call ptr @EVP_CIPHER_fetch(ptr noundef %0, ptr noundef nonnull @.str.1, ptr noundef %1) #9
  %10 = icmp eq ptr %9, null
  br i1 %10, label %26, label %11

11:                                               ; preds = %8
  %12 = call ptr @EVP_CIPHER_CTX_new() #9
  store ptr %12, ptr %6, align 8, !tbaa !3
  %13 = icmp eq ptr %12, null
  br i1 %13, label %26, label %14

14:                                               ; preds = %11
  %15 = call i32 @EVP_EncryptInit_ex2(ptr noundef nonnull %12, ptr noundef nonnull %9, ptr noundef nonnull %3, ptr noundef null, ptr noundef null) #9
  %.not18 = icmp eq i32 %15, 0
  br i1 %.not18, label %26, label %16

16:                                               ; preds = %14
  call void @EVP_CIPHER_free(ptr noundef nonnull %9) #9
  %17 = call ptr @OPENSSL_LH_new(ptr noundef nonnull @items_fwd_hash, ptr noundef nonnull @items_fwd_cmp) #9
  %18 = call ptr @OPENSSL_LH_set_thunks(ptr noundef %17, ptr noundef nonnull @lh_SRTM_ITEM_hfn_thunk, ptr noundef nonnull @lh_SRTM_ITEM_cfn_thunk, ptr noundef nonnull @lh_SRTM_ITEM_doall_thunk, ptr noundef nonnull @lh_SRTM_ITEM_doall_arg_thunk) #9
  %19 = getelementptr inbounds nuw i8, ptr %6, i64 8
  store ptr %18, ptr %19, align 8, !tbaa !11
  %20 = icmp eq ptr %18, null
  br i1 %20, label %26, label %21

21:                                               ; preds = %16
  %22 = call ptr @OPENSSL_LH_new(ptr noundef nonnull @items_rev_hash, ptr noundef nonnull @items_rev_cmp) #9
  %23 = call ptr @OPENSSL_LH_set_thunks(ptr noundef %22, ptr noundef nonnull @lh_SRTM_ITEM_hfn_thunk, ptr noundef nonnull @lh_SRTM_ITEM_cfn_thunk, ptr noundef nonnull @lh_SRTM_ITEM_doall_thunk, ptr noundef nonnull @lh_SRTM_ITEM_doall_arg_thunk) #9
  %24 = getelementptr inbounds nuw i8, ptr %6, i64 16
  store ptr %23, ptr %24, align 8, !tbaa !12
  %25 = icmp eq ptr %23, null
  br i1 %25, label %26, label %34

26:                                               ; preds = %8, %11, %16, %21, %14
  %.0.ph = phi ptr [ %9, %14 ], [ null, %21 ], [ null, %16 ], [ %9, %11 ], [ null, %8 ]
  %27 = getelementptr inbounds nuw i8, ptr %6, i64 16
  %28 = load ptr, ptr %27, align 8, !tbaa !12
  call void @OPENSSL_LH_free(ptr noundef %28) #9
  %29 = getelementptr inbounds nuw i8, ptr %6, i64 8
  %30 = load ptr, ptr %29, align 8, !tbaa !11
  %.not.i = icmp eq ptr %30, null
  br i1 %.not.i, label %32, label %31

31:                                               ; preds = %26
  call void @OPENSSL_LH_doall(ptr noundef nonnull %30, ptr noundef nonnull @srtm_free_each) #9
  call void @OPENSSL_LH_free(ptr noundef nonnull %30) #9
  br label %32

32:                                               ; preds = %31, %26
  %33 = load ptr, ptr %6, align 8, !tbaa !3
  call void @EVP_CIPHER_CTX_free(ptr noundef %33) #9
  call void @CRYPTO_free(ptr noundef nonnull %6, ptr noundef nonnull @.str, i32 noundef 176) #9
  br label %ossl_quic_srtm_free.exit

ossl_quic_srtm_free.exit:                         ; preds = %2, %32
  %.023 = phi ptr [ %.0.ph, %32 ], [ null, %2 ]
  call void @EVP_CIPHER_free(ptr noundef %.023) #9
  br label %34

34:                                               ; preds = %21, %5, %ossl_quic_srtm_free.exit
  %.014 = phi ptr [ null, %ossl_quic_srtm_free.exit ], [ null, %5 ], [ %6, %21 ]
  call void @llvm.lifetime.end.p0(i64 16, ptr nonnull %3) #9
  ret ptr %.014
}